target datalayout = "e-m:e-p270:32:32-p271:32:32-p272:64:64-i64:64-i128:128-f80:128-n8:16:32:64-S128"
target triple = "x86_64-pc-linux-gnu"

%"class.std::shared_ptr" = type { %"class.std::__shared_ptr" }
%"class.std::__shared_ptr" = type { ptr, %"class.std::__shared_count" }
%"class.std::__shared_count" = type { ptr }
%"class.open_spiel::leduc_poker::LeducState" = type <{ %"class.open_spiel::State.base", i32, i32, i32, i32, i32, i32, i32, i32, i32, i32, i32, %"class.std::vector.9", %"class.std::vector.13", %"class.std::vector.13", %"class.std::vector.18", %"class.std::vector.13", %"class.std::vector.9", %"class.std::vector.13", %"class.std::vector.13", i8, i8, [6 x i8] }>
%"class.open_spiel::State.base" = type <{ ptr, %"class.std::shared_ptr", i32, i32, %"class.std::vector", i32 }>
%"class.std::vector" = type { %"struct.std::_Vector_base" }
%"struct.std::_Vector_base" = type { %"struct.std::_Vector_base<open_spiel::State::PlayerAction, std::allocator<open_spiel::State::PlayerAction>>::_Vector_impl" }
%"struct.std::_Vector_base<open_spiel::State::PlayerAction, std::allocator<open_spiel::State::PlayerAction>>::_Vector_impl" = type { %"struct.std::_Vector_base<open_spiel::State::PlayerAction, std::allocator<open_spiel::State::PlayerAction>>::_Vector_impl_data" }
%"struct.std::_Vector_base<open_spiel::State::PlayerAction, std::allocator<open_spiel::State::PlayerAction>>::_Vector_impl_data" = type { ptr, ptr, ptr }
%"class.std::vector.18" = type { %"struct.std::_Vector_base.19" }
%"struct.std::_Vector_base.19" = type { %"struct.std::_Vector_base<double, std::allocator<double>>::_Vector_impl" }
%"struct.std::_Vector_base<double, std::allocator<double>>::_Vector_impl" = type { %"struct.std::_Vector_base<double, std::allocator<double>>::_Vector_impl_data" }
%"struct.std::_Vector_base<double, std::allocator<double>>::_Vector_impl_data" = type { ptr, ptr, ptr }
%"class.std::vector.9" = type { %"struct.std::_Bvector_base" }
%"struct.std::_Bvector_base" = type { %"struct.std::_Bvector_base<std::allocator<bool>>::_Bvector_impl" }
%"struct.std::_Bvector_base<std::allocator<bool>>::_Bvector_impl" = type { %"struct.std::_Bvector_base<std::allocator<bool>>::_Bvector_impl_data" }
%"struct.std::_Bvector_base<std::allocator<bool>>::_Bvector_impl_data" = type { %"struct.std::_Bit_iterator", %"struct.std::_Bit_iterator", ptr }
%"struct.std::_Bit_iterator" = type { %"struct.std::_Bit_iterator_base.base", [4 x i8] }
%"struct.std::_Bit_iterator_base.base" = type <{ ptr, i32 }>
%"class.std::vector.13" = type { %"struct.std::_Vector_base.14" }
%"struct.std::_Vector_base.14" = type { %"struct.std::_Vector_base<int, std::allocator<int>>::_Vector_impl" }
%"struct.std::_Vector_base<int, std::allocator<int>>::_Vector_impl" = type { %"struct.std::_Vector_base<int, std::allocator<int>>::_Vector_impl_data" }
%"struct.std::_Vector_base<int, std::allocator<int>>::_Vector_impl_data" = type { ptr, ptr, ptr }

; Function Attrs: mustprogress nounwind uwtable
define noundef zeroext i1 @_ZNK10open_spiel11leduc_poker10LeducState17ReadyForNextRoundEv(ptr noundef nonnull align 8 dereferenceable(330) %0) #5 align 2 {
  %2 = alloca ptr, align 8
  store ptr %0, ptr %2, align 8
  %3 = load ptr, ptr %2, align 8
  %4 = getelementptr inbounds nuw %"class.open_spiel::leduc_poker::LeducState", ptr %3, i32 0, i32 3
  %5 = load i32, ptr %4, align 4
  %6 = icmp eq i32 %5, 0
  br i1 %6, label %7, label %13

7:                                                ; preds = %1
  %8 = getelementptr inbounds nuw %"class.open_spiel::leduc_poker::LeducState", ptr %3, i32 0, i32 2
  %9 = load i32, ptr %8, align 8
  %10 = getelementptr inbounds nuw %"class.open_spiel::leduc_poker::LeducState", ptr %3, i32 0, i32 11
  %11 = load i32, ptr %10, align 4
  %12 = icmp eq i32 %9, %11
  br i1 %12, label %26, label %13

13:                                               ; preds = %7, %1
  %14 = getelementptr inbounds nuw %"class.open_spiel::leduc_poker::LeducState", ptr %3, i32 0, i32 3
  %15 = load i32, ptr %14, align 4
  %16 = icmp sgt i32 %15, 0
  br i1 %16, label %17, label %24

17:                                               ; preds = %13
  %18 = getelementptr inbounds nuw %"class.open_spiel::leduc_poker::LeducState", ptr %3, i32 0, i32 2
  %19 = load i32, ptr %18, align 8
  %20 = getelementptr inbounds nuw %"class.open_spiel::leduc_poker::LeducState", ptr %3, i32 0, i32 11
  %21 = load i32, ptr %20, align 4
  %22 = sub nsw i32 %21, 1
  %23 = icmp eq i32 %19, %22
  br label %24

24:                                               ; preds = %17, %13
  %25 = phi i1 [ false, %13 ], [ %23, %17 ]
  br label %26

26:                                               ; preds = %24, %7
  %27 = phi i1 [ true, %7 ], [ %25, %24 ]
  ret i1 %27
}

; Function Attrs: mustprogress uwtable
define noundef zeroext i1 @_ZNK10open_spiel11leduc_poker10LeducState10IsTerminalEv(ptr noundef nonnull align 8 dereferenceable(330) %0) unnamed_addr #4 align 2 {
  %2 = alloca ptr, align 8
  store ptr %0, ptr %2, align 8
  %3 = load ptr, ptr %2, align 8
  %4 = getelementptr inbounds nuw %"class.open_spiel::leduc_poker::LeducState", ptr %3, i32 0, i32 11
  %5 = load i32, ptr %4, align 4
  %6 = icmp eq i32 %5, 1
  br i1 %6, label %15, label %7

7:                                                ; preds = %1
  %8 = getelementptr inbounds nuw %"class.open_spiel::leduc_poker::LeducState", ptr %3, i32 0, i32 4
  %9 = load i32, ptr %8, align 8
  %10 = icmp eq i32 %9, 2
  br i1 %10, label %11, label %13

11:                                               ; preds = %7
  %12 = call noundef zeroext i1 @_ZNK10open_spiel11leduc_poker10LeducState17ReadyForNextRoundEv(ptr noundef nonnull align 8 dereferenceable(330) %3)
  br label %13

13:                                               ; preds = %11, %7
  %14 = phi i1 [ false, %7 ], [ %12, %11 ]
  br label %15

15:                                               ; preds = %13, %1
  %16 = phi i1 [ true, %1 ], [ %14, %13 ]
  ret i1 %16
}