; Function Attrs: mustprogress nofree norecurse nosync nounwind willreturn memory(argmem: read) uwtable
define noundef zeroext i1 @_ZNK10open_spiel11leduc_poker10LeducState10IsTerminalEv(ptr nocapture noundef nonnull readonly align 8 dereferenceable(330) %0) unnamed_addr #7 align 2 {
  %2 = getelementptr inbounds nuw i8, ptr %0, i64 100
  %3 = load i32, ptr %2, align 4
  %4 = icmp eq i32 %3, 1
  br i1 %4, label %_ZNK10open_spiel11leduc_poker10LeducState17ReadyForNextRoundEv.exit, label %5

5:                                                ; preds = %1
  %6 = getelementptr inbounds nuw i8, ptr %0, i64 72
  %7 = load i32, ptr %6, align 8
  %8 = icmp eq i32 %7, 2
  br i1 %8, label %9, label %_ZNK10open_spiel11leduc_poker10LeducState17ReadyForNextRoundEv.exit

9:                                                ; preds = %5
  %10 = getelementptr inbounds nuw i8, ptr %0, i64 68
  %11 = load i32, ptr %10, align 4
  %12 = icmp eq i32 %11, 0
  br i1 %12, label %13, label %17

13:                                               ; preds = %9
  %14 = getelementptr inbounds nuw i8, ptr %0, i64 64
  %15 = load i32, ptr %14, align 8
  %16 = icmp eq i32 %15, %3
  br label %_ZNK10open_spiel11leduc_poker10LeducState17ReadyForNextRoundEv.exit

17:                                               ; preds = %9
  %18 = icmp sgt i32 %11, 0
  br i1 %18, label %19, label %_ZNK10open_spiel11leduc_poker10LeducState17ReadyForNextRoundEv.exit

19:                                               ; preds = %17
  %20 = getelementptr inbounds nuw i8, ptr %0, i64 64
  %21 = load i32, ptr %20, align 8
  %22 = add nsw i32 %3, -1
  %23 = icmp eq i32 %21, %22
  br label %_ZNK10open_spiel11leduc_poker10LeducState17ReadyForNextRoundEv.exit

_ZNK10open_spiel11leduc_poker10LeducState17ReadyForNextRoundEv.exit: ; preds = %19, %17, %13, %5, %1
  %24 = phi i1 [ true, %1 ], [ false, %5 ], [ false, %17 ], [ %23, %19 ], [ %16, %13 ]
  ret i1 %24
}